; Function Attrs: mustprogress uwtable
define dso_local void @_ZN9cmProcess12OnAllocateCBEP11uv_handle_smP8uv_buf_t(ptr noundef readonly captures(none) %0, i64 %1, ptr noundef writeonly captures(none) initializes((0, 16)) %2) #3 align 2 {
  %4 = load ptr, ptr %0, align 8
  %5 = getelementptr inbounds nuw i8, ptr %4, i64 96
  %6 = getelementptr inbounds nuw i8, ptr %4, i64 104
  %7 = load ptr, ptr %6, align 8
  %8 = load ptr, ptr %5, align 8
  %9 = ptrtoint ptr %7 to i64
  %10 = ptrtoint ptr %8 to i64
  %11 = sub i64 %9, %10
  %.not.i = icmp eq i64 %11, 65536
  br i1 %.not.i, label %_ZN9cmProcess10OnAllocateEmP8uv_buf_t.exit, label %12

12:                                               ; preds = %3
  tail call void @_ZNSt6vectorIcSaIcEE6resizeEm(ptr noundef nonnull align 8 dereferenceable(24) %5, i64 noundef 65536)
  %.pre.i = load ptr, ptr %5, align 8
  %.pre2.i = load ptr, ptr %6, align 8
  %.pre3.i = ptrtoint ptr %.pre2.i to i64
  %.pre4.i = ptrtoint ptr %.pre.i to i64
  %.pre6.i = sub i64 %.pre3.i, %.pre4.i
  %13 = trunc i64 %.pre6.i to i32
  br label %_ZN9cmProcess10OnAllocateEmP8uv_buf_t.exit

_ZN9cmProcess10OnAllocateEmP8uv_buf_t.exit:       ; preds = %3, %12
  %.pre-phi7.i = phi i32 [ %13, %12 ], [ 65536, %3 ]
  %14 = phi ptr [ %.pre.i, %12 ], [ %8, %3 ]
  %15 = tail call { ptr, i64 } @uv_buf_init(ptr noundef %14, i32 noundef %.pre-phi7.i)
  %16 = extractvalue { ptr, i64 } %15, 0
  %17 = extractvalue { ptr, i64 } %15, 1
  store ptr %16, ptr %2, align 8
  %.sroa.2.0..sroa_idx.i = getelementptr inbounds nuw i8, ptr %2, i64 8
  store i64 %17, ptr %.sroa.2.0..sroa_idx.i, align 8
  ret void
}